target datalayout = "e-m:e-p270:32:32-p271:32:32-p272:64:64-i64:64-i128:128-f80:128-n8:16:32:64-S128"
target triple = "x86_64-pc-linux-gnu"

%struct.timespec = type { i64, i64 }

@.str.4 = private unnamed_addr constant [5 x i8] c"Time\00", align 1
@.str.21 = private unnamed_addr constant [28 x i8] c"Reordering... Before =%5d. \00", align 1
@.str.22 = private unnamed_addr constant [13 x i8] c"After =%5d. \00", align 1
@.str.23 = private unnamed_addr constant [5 x i8] c"%s =\00", align 1
@.str.35 = private unnamed_addr constant [11 x i8] c"%9.2f sec\0A\00", align 1

; Function Attrs: inlinehint nounwind uwtable
define internal void @Abc_PrintTime(i32 noundef %0, ptr noundef %1, i64 noundef %2) #3 {
  %4 = alloca i32, align 4
  %5 = alloca ptr, align 8
  %6 = alloca i64, align 8
  store i32 %0, ptr %4, align 4, !tbaa !13
  store ptr %1, ptr %5, align 8, !tbaa !95
  store i64 %2, ptr %6, align 8, !tbaa !93
  %7 = load ptr, ptr %5, align 8, !tbaa !95
  call void (i32, ptr, ...) @Abc_Print(i32 noundef 1, ptr noundef @.str.23, ptr noundef %7)
  %8 = load i64, ptr %6, align 8, !tbaa !93
  %9 = sitofp i64 %8 to double
  %10 = fmul double 1.000000e+00, %9
  %11 = fdiv double %10, 1.000000e+06
  call void (i32, ptr, ...) @Abc_Print(i32 noundef 1, ptr noundef @.str.35, double noundef %11)
  ret void
}

; Function Attrs: inlinehint nounwind uwtable
define internal i64 @Abc_Clock() #3 {
  %1 = alloca i64, align 8
  %2 = alloca %struct.timespec, align 8
  %3 = alloca i32, align 4
  %4 = alloca i64, align 8
  call void @llvm.lifetime.start.p0(i64 16, ptr %2) #11
  %5 = call i32 @clock_gettime(i32 noundef 1, ptr noundef %2) #11
  %6 = icmp slt i32 %5, 0
  br i1 %6, label %7, label %8

7:                                                ; preds = %0
  store i64 -1, ptr %1, align 8
  store i32 1, ptr %3, align 4
  br label %19

8:                                                ; preds = %0
  call void @llvm.lifetime.start.p0(i64 8, ptr %4) #11
  %9 = getelementptr inbounds nuw %struct.timespec, ptr %2, i32 0, i32 0
  %10 = load i64, ptr %9, align 8, !tbaa !161
  %11 = mul nsw i64 %10, 1000000
  store i64 %11, ptr %4, align 8, !tbaa !93
  %12 = getelementptr inbounds nuw %struct.timespec, ptr %2, i32 0, i32 1
  %13 = load i64, ptr %12, align 8, !tbaa !163
  %14 = mul nsw i64 %13, 1000000
  %15 = sdiv i64 %14, 1000000000
  %16 = load i64, ptr %4, align 8, !tbaa !93
  %17 = add nsw i64 %16, %15
  store i64 %17, ptr %4, align 8, !tbaa !93
  %18 = load i64, ptr %4, align 8, !tbaa !93
  store i64 %18, ptr %1, align 8
  store i32 1, ptr %3, align 4
  call void @llvm.lifetime.end.p0(i64 8, ptr %4) #11
  br label %19

19:                                               ; preds = %8, %7
  call void @llvm.lifetime.end.p0(i64 16, ptr %2) #11
  %20 = load i64, ptr %1, align 8
  ret i64 %20
}

; Function Attrs: nounwind uwtable
define void @Llb_Nonlin4Reorder(ptr noundef %0, i32 noundef %1, i32 noundef %2) #0 {
  %4 = alloca ptr, align 8
  %5 = alloca i32, align 4
  %6 = alloca i32, align 4
  %7 = alloca i64, align 8
  store ptr %0, ptr %4, align 8, !tbaa !3
  store i32 %1, ptr %5, align 4, !tbaa !13
  store i32 %2, ptr %6, align 4, !tbaa !13
  call void @llvm.lifetime.start.p0(i64 8, ptr %7) #11
  %8 = call i64 @Abc_Clock()
  store i64 %8, ptr %7, align 8, !tbaa !93
  %9 = load i32, ptr %6, align 4, !tbaa !13
  %10 = icmp ne i32 %9, 0
  br i1 %10, label %11, label %17

11:                                               ; preds = %3
  %12 = load ptr, ptr %4, align 8, !tbaa !3
  %13 = call i32 @Cudd_ReadKeys(ptr noundef %12)
  %14 = load ptr, ptr %4, align 8, !tbaa !3
  %15 = call i32 @Cudd_ReadDead(ptr noundef %14)
  %16 = sub i32 %13, %15
  call void (i32, ptr, ...) @Abc_Print(i32 noundef 1, ptr noundef @.str.21, i32 noundef %16)
  br label %17

17:                                               ; preds = %11, %3
  %18 = load ptr, ptr %4, align 8, !tbaa !3
  %19 = call i32 @Cudd_ReduceHeap(ptr noundef %18, i32 noundef 6, i32 noundef 100)
  %20 = load i32, ptr %6, align 4, !tbaa !13
  %21 = icmp ne i32 %20, 0
  br i1 %21, label %22, label %28

22:                                               ; preds = %17
  %23 = load ptr, ptr %4, align 8, !tbaa !3
  %24 = call i32 @Cudd_ReadKeys(ptr noundef %23)
  %25 = load ptr, ptr %4, align 8, !tbaa !3
  %26 = call i32 @Cudd_ReadDead(ptr noundef %25)
  %27 = sub i32 %24, %26
  call void (i32, ptr, ...) @Abc_Print(i32 noundef 1, ptr noundef @.str.22, i32 noundef %27)
  br label %28

28:                                               ; preds = %22, %17
  %29 = load i32, ptr %5, align 4, !tbaa !13
  %30 = icmp ne i32 %29, 0
  br i1 %30, label %31, label %43

31:                                               ; preds = %28
  %32 = load ptr, ptr %4, align 8, !tbaa !3
  %33 = call i32 @Cudd_ReduceHeap(ptr noundef %32, i32 noundef 6, i32 noundef 100)
  %34 = load i32, ptr %6, align 4, !tbaa !13
  %35 = icmp ne i32 %34, 0
  br i1 %35, label %36, label %42

36:                                               ; preds = %31
  %37 = load ptr, ptr %4, align 8, !tbaa !3
  %38 = call i32 @Cudd_ReadKeys(ptr noundef %37)
  %39 = load ptr, ptr %4, align 8, !tbaa !3
  %40 = call i32 @Cudd_ReadDead(ptr noundef %39)
  %41 = sub i32 %38, %40
  call void (i32, ptr, ...) @Abc_Print(i32 noundef 1, ptr noundef @.str.22, i32 noundef %41)
  br label %42

42:                                               ; preds = %36, %31
  br label %43

43:                                               ; preds = %42, %28
  %44 = load i32, ptr %6, align 4, !tbaa !13
  %45 = icmp ne i32 %44, 0
  br i1 %45, label %46, label %50

46:                                               ; preds = %43
  %47 = call i64 @Abc_Clock()
  %48 = load i64, ptr %7, align 8, !tbaa !93
  %49 = sub nsw i64 %47, %48
  call void @Abc_PrintTime(i32 noundef 1, ptr noundef @.str.4, i64 noundef %49)
  br label %50

50:                                               ; preds = %46, %43
  call void @llvm.lifetime.end.p0(i64 8, ptr %7) #11
  ret void
}