; Function Attrs: nounwind uwtable
define void @Llb_Nonlin4Reorder(ptr noundef %0, i32 noundef %1, i32 noundef %2) local_unnamed_addr #0 {
  %4 = alloca %struct.timespec, align 8
  %5 = alloca %struct.timespec, align 8
  call void @llvm.lifetime.start.p0(i64 16, ptr nonnull %5) #18
  %6 = call i32 @clock_gettime(i32 noundef 1, ptr noundef nonnull %5) #18
  %7 = icmp slt i32 %6, 0
  br i1 %7, label %Abc_Clock.exit, label %8

8:                                                ; preds = %3
  %9 = load i64, ptr %5, align 8, !tbaa !101
  %.neg21 = mul i64 %9, -1000000
  %10 = getelementptr inbounds nuw i8, ptr %5, i64 8
  %11 = load i64, ptr %10, align 8, !tbaa !103
  %.neg = sdiv i64 %11, -1000
  %.neg22 = add i64 %.neg, %.neg21
  br label %Abc_Clock.exit

Abc_Clock.exit:                                   ; preds = %3, %8
  %.0.i.neg = phi i64 [ %.neg22, %8 ], [ 1, %3 ]
  call void @llvm.lifetime.end.p0(i64 16, ptr nonnull %5) #18
  %.not = icmp eq i32 %2, 0
  br i1 %.not, label %12, label %.thread

12:                                               ; preds = %Abc_Clock.exit
  %13 = call i32 @Cudd_ReduceHeap(ptr noundef %0, i32 noundef 6, i32 noundef 100) #18
  %.not13 = icmp eq i32 %1, 0
  br i1 %.not13, label %.critedge15, label %21

.thread:                                          ; preds = %Abc_Clock.exit
  %14 = call i32 @Cudd_ReadKeys(ptr noundef %0) #18
  %15 = call i32 @Cudd_ReadDead(ptr noundef %0) #18
  %16 = sub i32 %14, %15
  call void (i32, ptr, ...) @Abc_Print(i32 poison, ptr noundef nonnull @.str.21, i32 noundef %16)
  %17 = call i32 @Cudd_ReduceHeap(ptr noundef %0, i32 noundef 6, i32 noundef 100) #18
  %18 = call i32 @Cudd_ReadKeys(ptr noundef %0) #18
  %19 = call i32 @Cudd_ReadDead(ptr noundef %0) #18
  %20 = sub i32 %18, %19
  call void (i32, ptr, ...) @Abc_Print(i32 poison, ptr noundef nonnull @.str.22, i32 noundef %20)
  %.not1318 = icmp eq i32 %1, 0
  br i1 %.not1318, label %.thread20, label %23

21:                                               ; preds = %12
  %22 = call i32 @Cudd_ReduceHeap(ptr noundef %0, i32 noundef 6, i32 noundef 100) #18
  br label %.critedge15

23:                                               ; preds = %.thread
  %24 = call i32 @Cudd_ReduceHeap(ptr noundef %0, i32 noundef 6, i32 noundef 100) #18
  %25 = call i32 @Cudd_ReadKeys(ptr noundef %0) #18
  %26 = call i32 @Cudd_ReadDead(ptr noundef %0) #18
  %27 = sub i32 %25, %26
  call void (i32, ptr, ...) @Abc_Print(i32 poison, ptr noundef nonnull @.str.22, i32 noundef %27)
  br label %.thread20

.thread20:                                        ; preds = %23, %.thread
  call void @llvm.lifetime.start.p0(i64 16, ptr nonnull %4) #18
  %28 = call i32 @clock_gettime(i32 noundef 1, ptr noundef nonnull %4) #18
  %29 = icmp slt i32 %28, 0
  br i1 %29, label %Abc_Clock.exit17, label %30

30:                                               ; preds = %.thread20
  %31 = load i64, ptr %4, align 8, !tbaa !101
  %32 = mul nsw i64 %31, 1000000
  %33 = getelementptr inbounds nuw i8, ptr %4, i64 8
  %34 = load i64, ptr %33, align 8, !tbaa !103
  %35 = sdiv i64 %34, 1000
  %36 = add nsw i64 %35, %32
  br label %Abc_Clock.exit17

Abc_Clock.exit17:                                 ; preds = %.thread20, %30
  %.0.i16 = phi i64 [ %36, %30 ], [ -1, %.thread20 ]
  call void @llvm.lifetime.end.p0(i64 16, ptr nonnull %4) #18
  %37 = add i64 %.0.i16, %.0.i.neg
  call void (i32, ptr, ...) @Abc_Print(i32 poison, ptr noundef nonnull @.str.23, ptr noundef nonnull @.str.4)
  %38 = sitofp i64 %37 to double
  %39 = fdiv double %38, 1.000000e+06
  call void (i32, ptr, ...) @Abc_Print(i32 poison, ptr noundef nonnull @.str.35, double noundef %39)
  br label %.critedge15

.critedge15:                                      ; preds = %12, %21, %Abc_Clock.exit17
  ret void
}